; Function Attrs: mustprogress uwtable
define void @_ZN6google8protobuf8internal14WireFormatLite10WriteGroupEiRKNS0_11MessageLiteEPNS0_2io17CodedOutputStreamE(i32 noundef %0, ptr noundef nonnull align 8 dereferenceable(16) %1, ptr noundef %2) local_unnamed_addr #3 align 2 {
  %4 = shl i32 %0, 3
  %5 = or disjoint i32 %4, 3
  %6 = getelementptr inbounds i8, ptr %2, i64 64
  %7 = load ptr, ptr %6, align 8
  %8 = load ptr, ptr %2, align 8
  %.not.i.i.i = icmp ugt ptr %8, %7
  br i1 %.not.i.i.i, label %_ZN6google8protobuf2io19EpsCopyOutputStream11EnsureSpaceEPh.exit.i.i, label %9

9:                                                ; preds = %3
  %10 = tail call noundef ptr @_ZN6google8protobuf2io19EpsCopyOutputStream19EnsureSpaceFallbackEPh(ptr noundef nonnull align 8 dereferenceable(59) %2, ptr noundef %7)
  br label %_ZN6google8protobuf2io19EpsCopyOutputStream11EnsureSpaceEPh.exit.i.i

_ZN6google8protobuf2io19EpsCopyOutputStream11EnsureSpaceEPh.exit.i.i: ; preds = %9, %3
  %.0.i.i.i = phi ptr [ %10, %9 ], [ %7, %3 ]
  %11 = icmp ult i32 %5, 128
  %12 = trunc i32 %5 to i8
  br i1 %11, label %13, label %15

13:                                               ; preds = %_ZN6google8protobuf2io19EpsCopyOutputStream11EnsureSpaceEPh.exit.i.i
  store i8 %12, ptr %.0.i.i.i, align 1
  %14 = getelementptr inbounds i8, ptr %.0.i.i.i, i64 1
  br label %_ZN6google8protobuf2io17CodedOutputStream8WriteTagEj.exit

15:                                               ; preds = %_ZN6google8protobuf2io19EpsCopyOutputStream11EnsureSpaceEPh.exit.i.i
  %16 = or i8 %12, -128
  store i8 %16, ptr %.0.i.i.i, align 1
  %17 = lshr i32 %4, 7
  %18 = icmp ult i32 %5, 16384
  br i1 %18, label %19, label %23

19:                                               ; preds = %15
  %20 = trunc nuw nsw i32 %17 to i8
  %21 = getelementptr inbounds i8, ptr %.0.i.i.i, i64 1
  store i8 %20, ptr %21, align 1
  %22 = getelementptr inbounds i8, ptr %.0.i.i.i, i64 2
  br label %_ZN6google8protobuf2io17CodedOutputStream8WriteTagEj.exit

23:                                               ; preds = %15
  %24 = getelementptr inbounds i8, ptr %.0.i.i.i, i64 1
  br label %25

25:                                               ; preds = %25, %23
  %.023.i.i.i = phi ptr [ %24, %23 ], [ %29, %25 ]
  %.022.i.i.i = phi i32 [ %17, %23 ], [ %28, %25 ]
  %26 = trunc i32 %.022.i.i.i to i8
  %27 = or i8 %26, -128
  store i8 %27, ptr %.023.i.i.i, align 1
  %28 = lshr i32 %.022.i.i.i, 7
  %29 = getelementptr inbounds i8, ptr %.023.i.i.i, i64 1
  %30 = icmp ugt i32 %.022.i.i.i, 16383
  br i1 %30, label %25, label %31, !llvm.loop !6

31:                                               ; preds = %25
  %32 = trunc nuw nsw i32 %28 to i8
  %33 = getelementptr inbounds i8, ptr %.023.i.i.i, i64 2
  store i8 %32, ptr %29, align 1
  br label %_ZN6google8protobuf2io17CodedOutputStream8WriteTagEj.exit

_ZN6google8protobuf2io17CodedOutputStream8WriteTagEj.exit: ; preds = %13, %19, %31
  %.0.i1.i.i = phi ptr [ %14, %13 ], [ %22, %19 ], [ %33, %31 ]
  store ptr %.0.i1.i.i, ptr %6, align 8
  %34 = load ptr, ptr %1, align 8
  %35 = getelementptr inbounds i8, ptr %34, i64 96
  %36 = load ptr, ptr %35, align 8
  %37 = tail call noundef ptr %36(ptr noundef nonnull align 8 dereferenceable(16) %1, ptr noundef nonnull %.0.i1.i.i, ptr noundef nonnull %2)
  store ptr %37, ptr %6, align 8
  %38 = or disjoint i32 %4, 4
  %39 = load ptr, ptr %2, align 8
  %.not.i.i.i11 = icmp ugt ptr %39, %37
  br i1 %.not.i.i.i11, label %_ZN6google8protobuf2io19EpsCopyOutputStream11EnsureSpaceEPh.exit.i.i12, label %40

40:                                               ; preds = %_ZN6google8protobuf2io17CodedOutputStream8WriteTagEj.exit
  %41 = tail call noundef ptr @_ZN6google8protobuf2io19EpsCopyOutputStream19EnsureSpaceFallbackEPh(ptr noundef nonnull align 8 dereferenceable(59) %2, ptr noundef %37)
  br label %_ZN6google8protobuf2io19EpsCopyOutputStream11EnsureSpaceEPh.exit.i.i12

_ZN6google8protobuf2io19EpsCopyOutputStream11EnsureSpaceEPh.exit.i.i12: ; preds = %40, %_ZN6google8protobuf2io17CodedOutputStream8WriteTagEj.exit
  %.0.i.i.i13 = phi ptr [ %41, %40 ], [ %37, %_ZN6google8protobuf2io17CodedOutputStream8WriteTagEj.exit ]
  %42 = icmp ult i32 %38, 128
  %43 = trunc i32 %38 to i8
  br i1 %42, label %44, label %46

44:                                               ; preds = %_ZN6google8protobuf2io19EpsCopyOutputStream11EnsureSpaceEPh.exit.i.i12
  store i8 %43, ptr %.0.i.i.i13, align 1
  %45 = getelementptr inbounds i8, ptr %.0.i.i.i13, i64 1
  br label %_ZN6google8protobuf2io17CodedOutputStream8WriteTagEj.exit17

46:                                               ; preds = %_ZN6google8protobuf2io19EpsCopyOutputStream11EnsureSpaceEPh.exit.i.i12
  %47 = or i8 %43, -128
  store i8 %47, ptr %.0.i.i.i13, align 1
  %48 = lshr i32 %4, 7
  %49 = icmp ult i32 %38, 16384
  br i1 %49, label %50, label %54

50:                                               ; preds = %46
  %51 = trunc nuw nsw i32 %48 to i8
  %52 = getelementptr inbounds i8, ptr %.0.i.i.i13, i64 1
  store i8 %51, ptr %52, align 1
  %53 = getelementptr inbounds i8, ptr %.0.i.i.i13, i64 2
  br label %_ZN6google8protobuf2io17CodedOutputStream8WriteTagEj.exit17

54:                                               ; preds = %46
  %55 = getelementptr inbounds i8, ptr %.0.i.i.i13, i64 1
  br label %56

56:                                               ; preds = %56, %54
  %.023.i.i.i14 = phi ptr [ %55, %54 ], [ %60, %56 ]
  %.022.i.i.i15 = phi i32 [ %48, %54 ], [ %59, %56 ]
  %57 = trunc i32 %.022.i.i.i15 to i8
  %58 = or i8 %57, -128
  store i8 %58, ptr %.023.i.i.i14, align 1
  %59 = lshr i32 %.022.i.i.i15, 7
  %60 = getelementptr inbounds i8, ptr %.023.i.i.i14, i64 1
  %61 = icmp ugt i32 %.022.i.i.i15, 16383
  br i1 %61, label %56, label %62, !llvm.loop !6

62:                                               ; preds = %56
  %63 = trunc nuw nsw i32 %59 to i8
  %64 = getelementptr inbounds i8, ptr %.023.i.i.i14, i64 2
  store i8 %63, ptr %60, align 1
  br label %_ZN6google8protobuf2io17CodedOutputStream8WriteTagEj.exit17

_ZN6google8protobuf2io17CodedOutputStream8WriteTagEj.exit17: ; preds = %44, %50, %62
  %.0.i1.i.i16 = phi ptr [ %45, %44 ], [ %53, %50 ], [ %64, %62 ]
  store ptr %.0.i1.i.i16, ptr %6, align 8
  ret void
}